target datalayout = "e-m:e-p270:32:32-p271:32:32-p272:64:64-i64:64-i128:128-f80:128-n8:16:32:64-S128"
target triple = "x86_64-unknown-linux-gnu"

%"class.llvh::FoldingSetIteratorImpl" = type { ptr }

; Function Attrs: mustprogress nounwind uwtable
define internal noundef ptr @_ZL10GetNextPtrPv(ptr noundef %NextInBucketPtr) #0 {
entry:
  %retval = alloca ptr, align 8
  %NextInBucketPtr.addr = alloca ptr, align 8
  store ptr %NextInBucketPtr, ptr %NextInBucketPtr.addr, align 8
  %0 = load ptr, ptr %NextInBucketPtr.addr, align 8
  %1 = ptrtoint ptr %0 to i64
  %and = and i64 %1, 1
  %tobool = icmp ne i64 %and, 0
  br i1 %tobool, label %if.then, label %if.end

if.then:                                          ; preds = %entry
  store ptr null, ptr %retval, align 8
  br label %return

if.end:                                           ; preds = %entry
  %2 = load ptr, ptr %NextInBucketPtr.addr, align 8
  store ptr %2, ptr %retval, align 8
  br label %return

return:                                           ; preds = %if.end, %if.then
  %3 = load ptr, ptr %retval, align 8
  ret ptr %3
}

; Function Attrs: mustprogress nounwind uwtable
define hidden void @_ZN4llvh22FoldingSetIteratorImplC2EPPv(ptr noundef nonnull align 8 dereferenceable(8) %this, ptr noundef %Bucket) unnamed_addr #0 align 2 {
entry:
  %this.addr = alloca ptr, align 8
  %Bucket.addr = alloca ptr, align 8
  store ptr %this, ptr %this.addr, align 8
  store ptr %Bucket, ptr %Bucket.addr, align 8
  %this1 = load ptr, ptr %this.addr, align 8
  br label %while.cond

while.cond:                                       ; preds = %while.body, %entry
  %0 = load ptr, ptr %Bucket.addr, align 8
  %1 = load ptr, ptr %0, align 8
  %cmp = icmp ne ptr %1, inttoptr (i64 -1 to ptr)
  br i1 %cmp, label %land.rhs, label %land.end

land.rhs:                                         ; preds = %while.cond
  %2 = load ptr, ptr %Bucket.addr, align 8
  %3 = load ptr, ptr %2, align 8
  %tobool = icmp ne ptr %3, null
  br i1 %tobool, label %lor.rhs, label %lor.end

lor.rhs:                                          ; preds = %land.rhs
  %4 = load ptr, ptr %Bucket.addr, align 8
  %5 = load ptr, ptr %4, align 8
  %call = call noundef ptr @_ZL10GetNextPtrPv(ptr noundef %5)
  %tobool2 = icmp ne ptr %call, null
  %lnot = xor i1 %tobool2, true
  br label %lor.end

lor.end:                                          ; preds = %lor.rhs, %land.rhs
  %6 = phi i1 [ true, %land.rhs ], [ %lnot, %lor.rhs ]
  br label %land.end

land.end:                                         ; preds = %lor.end, %while.cond
  %7 = phi i1 [ false, %while.cond ], [ %6, %lor.end ]
  br i1 %7, label %while.body, label %while.end

while.body:                                       ; preds = %land.end
  %8 = load ptr, ptr %Bucket.addr, align 8
  %incdec.ptr = getelementptr inbounds ptr, ptr %8, i32 1
  store ptr %incdec.ptr, ptr %Bucket.addr, align 8
  br label %while.cond, !llvm.loop !10

while.end:                                        ; preds = %land.end
  %9 = load ptr, ptr %Bucket.addr, align 8
  %10 = load ptr, ptr %9, align 8
  %NodePtr = getelementptr inbounds %"class.llvh::FoldingSetIteratorImpl", ptr %this1, i32 0, i32 0
  store ptr %10, ptr %NodePtr, align 8
  ret void
}