; Function Attrs: mustprogress nofree norecurse nosync nounwind memory(read, argmem: readwrite, inaccessiblemem: none) uwtable
define hidden void @_ZN4llvh22FoldingSetIteratorImplC2EPPv(ptr nocapture noundef nonnull writeonly align 8 dereferenceable(8) %this, ptr nocapture noundef readonly %Bucket) unnamed_addr #11 align 2 {
entry:
  br label %while.cond

while.cond:                                       ; preds = %while.body, %entry
  %Bucket.addr.0 = phi ptr [ %Bucket, %entry ], [ %incdec.ptr, %while.body ]
  %0 = load ptr, ptr %Bucket.addr.0, align 8
  %magicptr = ptrtoint ptr %0 to i64
  switch i64 %magicptr, label %lor.rhs [
    i64 -1, label %while.end
    i64 0, label %while.body
  ]

lor.rhs:                                          ; preds = %while.cond
  %and.i = and i64 %magicptr, 1
  %tobool.not.i = icmp ne i64 %and.i, 0
  %tobool2.not5 = icmp eq ptr %0, null
  %tobool2.not = or i1 %tobool2.not5, %tobool.not.i
  br i1 %tobool2.not, label %while.body, label %while.end

while.body:                                       ; preds = %while.cond, %lor.rhs
  %incdec.ptr = getelementptr inbounds i8, ptr %Bucket.addr.0, i64 8
  br label %while.cond, !llvm.loop !11

while.end:                                        ; preds = %while.cond, %lor.rhs
  store ptr %0, ptr %this, align 8
  ret void
}